webrtc__ZN6webrtc27CreatePeerConnectionFactoryEPN3rtc6ThreadES2_S2_NS0_13scoped_refptrINS_17AudioDeviceModuleEEENS3_INS_19AudioEncoderFactoryEEENS3_INS_19AudioDecoderFactoryEEENSt6__ndk110unique_ptrINS_19VideoEncoderFactoryENSA_14default_deleteISC_EEEENSB_INS_19VideoDecoderFactoryENSD_ISG_EEEENS3_INS_10AudioMixerEEENS3_INS_15AudioProcessingEEE _ZN6webrtc27CreatePeerConnectionFactoryEPN3rtc6ThreadES2_S2_NS0_13scoped_refptrINS_17AudioDeviceModuleEEENS3_INS_19AudioEncoderFactoryEEENS3_INS_19AudioDecoderFactoryEEENSt6__ndk110unique_ptrINS_19VideoEncoderFactoryENSA_14default_deleteISC_EEEENSB_INS_19VideoDecoderFactoryENSD_ISG_EEEENS3_INS_10AudioMixerEEENS3_INS_15AudioProcessingEEE
webrtc__ZN6webrtc17AudioDeviceModule6CreateEiNS0_10AudioLayerE _ZN6webrtc17AudioDeviceModule6CreateEiNS0_10AudioLayerE
webrtc__ZN3rtc10CleanupSSLEv _ZN3rtc10CleanupSSLEv
webrtc__ZN3rtc13InitializeSSLEv _ZN3rtc13InitializeSSLEv
webrtc__ZN3rtc17CopyOnWriteBufferC2Emm _ZN3rtc17CopyOnWriteBufferC2Emm
webrtc__ZN3rtc17CopyOnWriteBufferD1Ev _ZN3rtc17CopyOnWriteBufferD1Ev
webrtc__ZN3rtc17CopyOnWriteBufferC1ERKS0_ _ZN3rtc17CopyOnWriteBufferC1ERKS0_
webrtc__ZN3rtc18webrtc_checks_impl8FatalLogEPKciS2_PKNS0_12CheckArgTypeEz _ZN3rtc18webrtc_checks_impl8FatalLogEPKciS2_PKNS0_12CheckArgTypeEz
webrtc__ZN6webrtc23PeerConnectionInterface16RTCConfigurationC1Ev _ZN6webrtc23PeerConnectionInterface16RTCConfigurationC1Ev
webrtc__ZN6webrtc23PeerConnectionInterface16RTCConfigurationD1Ev _ZN6webrtc23PeerConnectionInterface16RTCConfigurationD1Ev
webrtc__ZN6webrtc23PeerConnectionInterface9IceServerD1Ev _ZN6webrtc23PeerConnectionInterface9IceServerD1Ev
webrtc__ZN6webrtc23PeerConnectionInterface9IceServerC1Ev _ZN6webrtc23PeerConnectionInterface9IceServerC1Ev
webrtc__ZN6webrtc23PeerConnectionInterface9IceServerC1ERKS1_ _ZN6webrtc23PeerConnectionInterface9IceServerC1ERKS1_
webrtc__ZN6webrtc24CreateSessionDescriptionERKNSt6__ndk112basic_stringIcNS0_11char_traitsIcEENS0_9allocatorIcEEEES8_PNS_13SdpParseErrorE _ZN6webrtc24CreateSessionDescriptionERKNSt6__ndk112basic_stringIcNS0_11char_traitsIcEENS0_9allocatorIcEEEES8_PNS_13SdpParseErrorE
webrtc__ZN6webrtc18CreateIceCandidateERKNSt6__ndk112basic_stringIcNS0_11char_traitsIcEENS0_9allocatorIcEEEEiS8_PNS_13SdpParseErrorE _ZN6webrtc18CreateIceCandidateERKNSt6__ndk112basic_stringIcNS0_11char_traitsIcEENS0_9allocatorIcEEEEiS8_PNS_13SdpParseErrorE
webrtc__ZN6webrtc32CreateSessionDescriptionObserver9OnFailureENS_8RTCErrorE _ZN6webrtc32CreateSessionDescriptionObserver9OnFailureENS_8RTCErrorE
webrtc__ZN6webrtc29SetSessionDescriptionObserver9OnFailureENS_8RTCErrorE _ZN6webrtc29SetSessionDescriptionObserver9OnFailureENS_8RTCErrorE
webrtc__ZNK3rtc17ThreadCheckerImpl19CalledOnValidThreadEv _ZNK3rtc17ThreadCheckerImpl19CalledOnValidThreadEv
webrtc__ZNK6webrtc11StatsReport5Value12display_nameEv _ZNK6webrtc11StatsReport5Value12display_nameEv
webrtc__ZN6webrtc11StatsReport5ValueD1Ev _ZN6webrtc11StatsReport5ValueD1Ev
webrtc__ZNK6webrtc11StatsReport5Value8ToStringEv _ZNK6webrtc11StatsReport5Value8ToStringEv
webrtc__ZNK6webrtc11StatsReport12TypeToStringEv _ZNK6webrtc11StatsReport12TypeToStringEv
webrtc___dso_handle __dso_handle
webrtc__ZNSt6__ndk18ios_base4initEPv _ZNSt6__ndk18ios_base4initEPv
webrtc_strrchr strrchr
webrtc_strerror strerror
webrtc___stack_chk_fail __stack_chk_fail
webrtc___cxa_guard_acquire __cxa_guard_acquire
webrtc___cxa_guard_release __cxa_guard_release
webrtc_time time
webrtc__ZNKSt6__ndk18ios_base6getlocEv _ZNKSt6__ndk18ios_base6getlocEv
webrtc__ZNSt6__ndk15ctypeIcE2idE _ZNSt6__ndk15ctypeIcE2idE
webrtc__ZNKSt6__ndk16locale9use_facetERNS0_2idE _ZNKSt6__ndk16locale9use_facetERNS0_2idE
webrtc__ZNSt6__ndk16localeD1Ev _ZNSt6__ndk16localeD1Ev
webrtc___android_log_write __android_log_write
webrtc___sF __sF
webrtc_fwrite fwrite
webrtc___android_log_print __android_log_print
webrtc_fputs fputs
webrtc_fflush fflush
webrtc___cxa_atexit __cxa_atexit
webrtc__ZNSt6__ndk17num_putIcNS_19ostreambuf_iteratorIcNS_11char_traitsIcEEEEE2idE _ZNSt6__ndk17num_putIcNS_19ostreambuf_iteratorIcNS_11char_traitsIcEEEEE2idE
webrtc__ZNSt6__ndk18ios_base5clearEj _ZNSt6__ndk18ios_base5clearEj
webrtc__ZdlPv _ZdlPv
webrtc_memcmp memcmp
webrtc_memcpy memcpy
webrtc__Znam _Znam
webrtc__ZdaPv _ZdaPv
webrtc__Znwm _Znwm
webrtc_strlen strlen
webrtc_abort abort
webrtc__ZSt18uncaught_exceptionv _ZSt18uncaught_exceptionv
webrtc_memset memset
webrtc_memmove memmove
webrtc__ZNSt6__ndk112__next_primeEm _ZNSt6__ndk112__next_primeEm
webrtc_strcmp strcmp
webrtc___cxa_pure_virtual __cxa_pure_virtual
webrtc___assert2 __assert2
webrtc__ZNSt6__ndk14coutE _ZNSt6__ndk14coutE
webrtc__ZNSt6__ndk18ios_baseD2Ev _ZNSt6__ndk18ios_baseD2Ev
webrtc_tolower tolower
webrtc_islower islower
webrtc_memchr memchr
webrtc__ZNSt6__ndk16localeC1Ev _ZNSt6__ndk16localeC1Ev
webrtc_isnan isnan
webrtc_sscanf sscanf
webrtc_getaddrinfo getaddrinfo
webrtc_freeaddrinfo freeaddrinfo
webrtc_inet_ntop inet_ntop
webrtc_inet_pton inet_pton
webrtc___errno __errno
webrtc_strncmp strncmp
webrtc__ZNSt6__ndk19to_stringEi _ZNSt6__ndk19to_stringEi
webrtc_toupper toupper
webrtc_strspn strspn
webrtc_fopen fopen
webrtc_setvbuf setvbuf
webrtc_fread fread
webrtc_feof feof
webrtc_fseek fseek
webrtc_ftell ftell
webrtc_fileno fileno
webrtc_fstat fstat
webrtc_fclose fclose
webrtc_pthread_getspecific pthread_getspecific
webrtc_pthread_self pthread_self
webrtc_pthread_key_create pthread_key_create
webrtc_pthread_setspecific pthread_setspecific
webrtc_nanosleep nanosleep
webrtc_pthread_attr_init pthread_attr_init
webrtc_pthread_create pthread_create
webrtc_pthread_join pthread_join
webrtc_vsnprintf vsnprintf
webrtc_if_indextoname if_indextoname
webrtc_strncpy strncpy
webrtc_socket socket
webrtc_ioctl ioctl
webrtc_send send
webrtc_recv recv
webrtc_close close
webrtc___udivti3 __udivti3
webrtc_syscall syscall
webrtc_read read
webrtc_perror perror
webrtc_open open
webrtc_dup dup
webrtc_fcntl fcntl
webrtc_malloc malloc
webrtc_free free
webrtc_pthread_rwlock_init pthread_rwlock_init
webrtc_pthread_rwlock_rdlock pthread_rwlock_rdlock
webrtc_pthread_rwlock_wrlock pthread_rwlock_wrlock
webrtc_pthread_rwlock_unlock pthread_rwlock_unlock
webrtc_pthread_rwlock_destroy pthread_rwlock_destroy
webrtc_pthread_once pthread_once
webrtc_pthread_mutex_unlock pthread_mutex_unlock
webrtc_pthread_mutex_lock pthread_mutex_lock
webrtc_log10f log10f
webrtc_sqrtf sqrtf
webrtc_expf expf
webrtc_powf powf
webrtc_cosf cosf
webrtc_sinf sinf
webrtc_qsort qsort
webrtc_logf logf
webrtc_log log
webrtc_cos cos
webrtc_strtod strtod
webrtc_strtoll strtoll
webrtc_strtoull strtoull
webrtc_snprintf snprintf
webrtc_write write
webrtc_pthread_mutexattr_init pthread_mutexattr_init
webrtc_pthread_mutexattr_settype pthread_mutexattr_settype
webrtc_pthread_mutex_init pthread_mutex_init
webrtc_pthread_mutexattr_destroy pthread_mutexattr_destroy
webrtc_pthread_mutex_destroy pthread_mutex_destroy
webrtc_gettid gettid
webrtc_pthread_equal pthread_equal
webrtc_prctl prctl
webrtc_clock_gettime clock_gettime
webrtc_gettimeofday gettimeofday
webrtc_slCreateEngine slCreateEngine
webrtc_pthread_condattr_init pthread_condattr_init
webrtc_pthread_condattr_setclock pthread_condattr_setclock
webrtc_pthread_cond_init pthread_cond_init
webrtc_pthread_condattr_destroy pthread_condattr_destroy
webrtc_pthread_cond_destroy pthread_cond_destroy
webrtc_pthread_cond_broadcast pthread_cond_broadcast
webrtc_pthread_cond_timedwait pthread_cond_timedwait
webrtc_pthread_cond_wait pthread_cond_wait
webrtc_SL_IID_ENGINE SL_IID_ENGINE
webrtc_SL_IID_ANDROIDCONFIGURATION SL_IID_ANDROIDCONFIGURATION
webrtc_SL_IID_BUFFERQUEUE SL_IID_BUFFERQUEUE
webrtc_SL_IID_VOLUME SL_IID_VOLUME
webrtc_SL_IID_PLAY SL_IID_PLAY
webrtc_SL_IID_ANDROIDSIMPLEBUFFERQUEUE SL_IID_ANDROIDSIMPLEBUFFERQUEUE
webrtc_SL_IID_RECORD SL_IID_RECORD
webrtc_sqrt sqrt
webrtc_pipe pipe
webrtc_sigemptyset sigemptyset
webrtc_sigaddset sigaddset
webrtc_pthread_sigmask pthread_sigmask
webrtc_calloc calloc
webrtc_realloc realloc
webrtc_socketpair socketpair
webrtc_getuid getuid
webrtc_geteuid geteuid
webrtc_getgid getgid
webrtc_getegid getegid
webrtc_getenv getenv
webrtc_exit exit
webrtc_fprintf fprintf
webrtc_poll poll
webrtc_random random
webrtc_select select
webrtc_sigfillset sigfillset
webrtc_sigaction sigaction
webrtc_epoll_create epoll_create
webrtc_epoll_ctl epoll_ctl
webrtc_epoll_wait epoll_wait
webrtc_strcasecmp strcasecmp
webrtc_pthread_mutex_trylock pthread_mutex_trylock
webrtc_localtime_r localtime_r
webrtc_getsockopt getsockopt
webrtc_getsockname getsockname
webrtc_getpeername getpeername
webrtc_bind bind
webrtc_connect connect
webrtc_setsockopt setsockopt
webrtc_recvfrom recvfrom
webrtc_listen listen
webrtc_accept accept
webrtc_sendto sendto
webrtc_strtoul strtoul
webrtc_strncasecmp strncasecmp
webrtc_sin sin
webrtc_strchr strchr
webrtc_bsearch bsearch
webrtc_isspace isspace
webrtc_atanf atanf
webrtc_exp exp
webrtc_pow pow
webrtc_lrint lrint
webrtc_strtol strtol
webrtc_sched_yield sched_yield
webrtc_pthread_attr_setstacksize pthread_attr_setstacksize
webrtc_pthread_attr_destroy pthread_attr_destroy
webrtc_sched_get_priority_min sched_get_priority_min
webrtc_sched_get_priority_max sched_get_priority_max
webrtc_pthread_setschedparam pthread_setschedparam
webrtc_fdopen fdopen
webrtc__ZSt7nothrow _ZSt7nothrow
webrtc__ZnwmRKSt9nothrow_t _ZnwmRKSt9nothrow_t
webrtc_getpid getpid
webrtc_srandom srandom
webrtc_sprintf sprintf
webrtc_gmtime_r gmtime_r
webrtc_isxdigit isxdigit
webrtc_isdigit isdigit
webrtc_getauxval getauxval
webrtc_sysconf sysconf
webrtc_isalnum isalnum
webrtc_strnlen strnlen
webrtc_lseek lseek
webrtc_expm1 expm1
webrtc_log2f log2f
webrtc_rand rand
webrtc_lrintf lrintf
webrtc_log10 log10
webrtc_asin asin
webrtc___vsnprintf_chk __vsnprintf_chk
webrtc___memcpy_chk __memcpy_chk
webrtc___memmove_chk __memmove_chk
webrtc___read_chk __read_chk
webrtc___FD_ISSET_chk __FD_ISSET_chk
webrtc___FD_CLR_chk __FD_CLR_chk
webrtc___FD_SET_chk __FD_SET_chk
webrtc___strchr_chk __strchr_chk
webrtc___vsprintf_chk __vsprintf_chk
webrtc___strncpy_chk2 __strncpy_chk2
webrtc___memset_chk __memset_chk
